target datalayout = "e-m:e-p270:32:32-p271:32:32-p272:64:64-i64:64-i128:128-f80:128-n8:16:32:64-S128"
target triple = "x86_64-unknown-linux-gnu"

; Function Attrs: mustprogress nounwind uwtable
define linkonce_odr noundef i64 @_ZN5folly4hash11twang_mix64Em(i64 noundef %key) #1 comdat {
entry:
  %key.addr = alloca i64, align 8
  store i64 %key, ptr %key.addr, align 8
  %0 = load i64, ptr %key.addr, align 8
  %not = xor i64 %0, -1
  %1 = load i64, ptr %key.addr, align 8
  %shl = shl i64 %1, 21
  %add = add i64 %not, %shl
  store i64 %add, ptr %key.addr, align 8
  %2 = load i64, ptr %key.addr, align 8
  %3 = load i64, ptr %key.addr, align 8
  %shr = lshr i64 %3, 24
  %xor = xor i64 %2, %shr
  store i64 %xor, ptr %key.addr, align 8
  %4 = load i64, ptr %key.addr, align 8
  %5 = load i64, ptr %key.addr, align 8
  %shl1 = shl i64 %5, 3
  %add2 = add i64 %4, %shl1
  %6 = load i64, ptr %key.addr, align 8
  %shl3 = shl i64 %6, 8
  %add4 = add i64 %add2, %shl3
  store i64 %add4, ptr %key.addr, align 8
  %7 = load i64, ptr %key.addr, align 8
  %8 = load i64, ptr %key.addr, align 8
  %shr5 = lshr i64 %8, 14
  %xor6 = xor i64 %7, %shr5
  store i64 %xor6, ptr %key.addr, align 8
  %9 = load i64, ptr %key.addr, align 8
  %10 = load i64, ptr %key.addr, align 8
  %shl7 = shl i64 %10, 2
  %add8 = add i64 %9, %shl7
  %11 = load i64, ptr %key.addr, align 8
  %shl9 = shl i64 %11, 4
  %add10 = add i64 %add8, %shl9
  store i64 %add10, ptr %key.addr, align 8
  %12 = load i64, ptr %key.addr, align 8
  %13 = load i64, ptr %key.addr, align 8
  %shr11 = lshr i64 %13, 28
  %xor12 = xor i64 %12, %shr11
  store i64 %xor12, ptr %key.addr, align 8
  %14 = load i64, ptr %key.addr, align 8
  %15 = load i64, ptr %key.addr, align 8
  %shl13 = shl i64 %15, 31
  %add14 = add i64 %14, %shl13
  store i64 %add14, ptr %key.addr, align 8
  %16 = load i64, ptr %key.addr, align 8
  ret i64 %16
}

; Function Attrs: mustprogress nounwind uwtable
define noundef i64 @_ZNK8proxygen14RendezvousHash11computeHashEm(ptr noundef nonnull align 8 dereferenceable(32) %this, i64 noundef %i) #1 align 2 {
entry:
  %this.addr = alloca ptr, align 8
  %i.addr = alloca i64, align 8
  store ptr %this, ptr %this.addr, align 8
  store i64 %i, ptr %i.addr, align 8
  %0 = load i64, ptr %i.addr, align 8
  %call = call noundef i64 @_ZN5folly4hash11twang_mix64Em(i64 noundef %0) #10
  ret i64 %call
}