; Function Attrs: mustprogress nofree norecurse nosync nounwind willreturn memory(none) uwtable
define noundef i64 @_ZNK8proxygen14RendezvousHash11computeHashEm(ptr nocapture noundef nonnull readnone align 8 dereferenceable(32) %this, i64 noundef %i) local_unnamed_addr #4 align 2 {
entry:
  %not.i = xor i64 %i, -1
  %shl.i = shl i64 %i, 21
  %add.i = add i64 %shl.i, %not.i
  %shr.i = lshr i64 %add.i, 24
  %xor.i = xor i64 %shr.i, %add.i
  %add4.i = mul i64 %xor.i, 265
  %shr5.i = lshr i64 %add4.i, 14
  %xor6.i = xor i64 %shr5.i, %add4.i
  %add10.i = mul i64 %xor6.i, 21
  %shr11.i = lshr i64 %add10.i, 28
  %xor12.i = xor i64 %shr11.i, %add10.i
  %add14.i = mul i64 %xor12.i, 2147483649
  ret i64 %add14.i
}